; Function Attrs: mustprogress uwtable
define void @_ZN8proxygen15HTTPTransaction21updateAndSendPriorityENS_12HTTPPriorityE(ptr noundef nonnull align 8 dereferenceable(912) %this, ptr nocapture noundef readonly %pri) unnamed_addr #3 align 2 {
entry:
  %agg.tmp = alloca %"struct.proxygen::HTTPPriority", align 8
  %urgency = getelementptr inbounds i8, ptr %pri, i64 8
  %bf.load = load i64, ptr %urgency, align 8
  %transport_ = getelementptr inbounds i8, ptr %this, i64 272
  %0 = load ptr, ptr %transport_, align 8
  store ptr getelementptr inbounds ({ [4 x ptr] }, ptr @_ZTVN8proxygen12HTTPPriorityE, i64 0, i32 0, i64 2), ptr %agg.tmp, align 8
  %urgency.i = getelementptr inbounds i8, ptr %agg.tmp, i64 8
  store i64 %bf.load, ptr %urgency.i, align 8
  %vtable = load ptr, ptr %0, align 8
  %vfn = getelementptr inbounds i8, ptr %vtable, i64 112
  %1 = load ptr, ptr %vfn, align 8
  %call5 = call noundef i64 %1(ptr noundef nonnull align 8 dereferenceable(8) %0, ptr noundef nonnull %this, ptr noundef nonnull %agg.tmp) #27
  ret void
}